; Function Attrs: nounwind uwtable
define range(i32 -1, 1) i32 @H5VLgroup_close(ptr noundef %0, i64 noundef %1, i64 noundef %2, ptr noundef %3) local_unnamed_addr #0 {
  %5 = icmp eq ptr %0, null
  br i1 %5, label %6, label %10, !prof !41

6:                                                ; preds = %4
  %7 = load i64, ptr @H5E_ARGS_g, align 8, !tbaa !3
  %8 = load i64, ptr @H5E_BADVALUE_g, align 8, !tbaa !3
  %9 = tail call i32 (ptr, ptr, i32, i64, i64, ptr, ...) @H5E_printf_stack(ptr noundef nonnull @.str, ptr noundef nonnull @__func__.H5VLgroup_close, i32 noundef 5066, i64 noundef %7, i64 noundef %8, ptr noundef nonnull @.str.17) #7
  br label %25

10:                                               ; preds = %4
  %11 = tail call ptr @H5I_object_verify(i64 noundef %1, i32 noundef 9) #7
  %12 = icmp eq ptr %11, null
  br i1 %12, label %13, label %17, !prof !41

13:                                               ; preds = %10
  %14 = load i64, ptr @H5E_ARGS_g, align 8, !tbaa !3
  %15 = load i64, ptr @H5E_BADTYPE_g, align 8, !tbaa !3
  %16 = tail call i32 (ptr, ptr, i32, i64, i64, ptr, ...) @H5E_printf_stack(ptr noundef nonnull @.str, ptr noundef nonnull @__func__.H5VLgroup_close, i32 noundef 5068, i64 noundef %14, i64 noundef %15, ptr noundef nonnull @.str.1) #7
  br label %25

17:                                               ; preds = %10
  %18 = load ptr, ptr %11, align 8, !tbaa !7
  %19 = tail call fastcc i32 @H5VL__group_close(ptr noundef nonnull %0, ptr noundef %18, i64 noundef %2, ptr noundef %3)
  %20 = icmp slt i32 %19, 0
  br i1 %20, label %21, label %27, !prof !41

21:                                               ; preds = %17
  %22 = load i64, ptr @H5E_VOL_g, align 8, !tbaa !3
  %23 = load i64, ptr @H5E_CANTCLOSEOBJ_g, align 8, !tbaa !3
  %24 = tail call i32 (ptr, ptr, i32, i64, i64, ptr, ...) @H5E_printf_stack(ptr noundef nonnull @.str, ptr noundef nonnull @__func__.H5VLgroup_close, i32 noundef 5072, i64 noundef %22, i64 noundef %23, ptr noundef nonnull @.str.111) #7
  br label %25

25:                                               ; preds = %6, %13, %21
  %26 = tail call i32 @H5E_dump_api_stack() #7
  br label %27

27:                                               ; preds = %17, %25
  %.01015 = phi i32 [ -1, %25 ], [ 0, %17 ]
  ret i32 %.01015
}